(dp1
I0
(dp2
I0
(I100
I100
I3
tp3
sI1
(I100
I100
I3
tp4
sI2
(I100
I100
I3
tp5
sI3
(I100
I100
I3
tp6
sI4
(I100
I100
I3
tp7
sI5
(I100
I100
I3
tp8
sI6
(I100
I100
I3
tp9
sI7
(I100
I100
I3
tp10
sI8
(I100
I100
I3
tp11
sI9
(I100
I100
I3
tp12
sI10
(I100
I100
I3
tp13
sI11
(I100
I100
I3
tp14
sI12
(I100
I100
I3
tp15
ssI1
(dp16
I0
(I200
I3
tp17
sI1
(I200
I3
tp18
sI2
(I200
I3
tp19
sI3
(I200
I3
tp20
sI4
(I200
I3
tp21
sI5
(I200
I3
tp22
sI6
(I200
I3
tp23
sI7
(I200
I3
tp24
sI8
(I200
I3
tp25
sI9
(I200
I3
tp26
sI10
(I200
I3
tp27
sI11
(I200
I3
tp28
sI12
(I200
I3
tp29
ssI2
(dp30
I0
(I1
I3
tp31
sI1
(I1
I3
tp32
sI2
(I1
I3
tp33
sI3
(I1
I3
tp34
sI4
(I1
I3
tp35
sI5
(I1
I3
tp36
sI6
(I1
I3
tp37
sI7
(I1
I3
tp38
sI8
(I1
I3
tp39
sI9
(I1
I3
tp40
sI10
(I1
I3
tp41
sI11
(I1
I3
tp42
sI12
(I1
I3
tp43
ssI3
(dp44
I0
(I3
I1
tp45
sI1
(I3
I1
tp46
sI2
(I3
I1
tp47
sI3
(I3
I1
tp48
sI4
(I3
I1
tp49
sI5
(I3
I1
tp50
sI6
(I3
I1
tp51
sI7
(I3
I1
tp52
sI8
(I3
I1
tp53
sI9
(I3
I1
tp54
sI10
(I3
I1
tp55
sI11
(I3
I1
tp56
sI12
(I3
I1
tp57
ssI4
(I100
I1052
tp58
s.