(dp1
I0
(dp2
I0
(I200
I200
I3
tp3
sI1
(I200
I200
I3
tp4
sI2
(I200
I200
I3
tp5
sI3
(I200
I200
I3
tp6
sI4
(I200
I200
I3
tp7
sI5
(I200
I200
I3
tp8
sI6
(I200
I200
I3
tp9
ssI1
(dp10
I0
(I200
I3
tp11
sI1
(I200
I3
tp12
sI2
(I200
I3
tp13
sI3
(I200
I3
tp14
sI4
(I200
I3
tp15
sI5
(I200
I3
tp16
sI6
(I200
I3
tp17
ssI2
(dp18
I0
(I1
I3
tp19
sI1
(I1
I3
tp20
sI2
(I1
I3
tp21
sI3
(I1
I3
tp22
sI4
(I1
I3
tp23
sI5
(I1
I3
tp24
sI6
(I1
I3
tp25
ssI3
(dp26
I0
(I3
I1
tp27
sI1
(I3
I1
tp28
sI2
(I3
I1
tp29
sI3
(I3
I1
tp30
sI4
(I3
I1
tp31
sI5
(I3
I1
tp32
sI6
(I3
I1
tp33
ssI4
(I100
I146
tp34
s.