(dp1
I0
(dp2
I0
(I200
I200
I3
tp3
sI1
(I200
I200
I3
tp4
sI2
(I200
I200
I3
tp5
sI3
(I200
I200
I3
tp6
sI4
(I200
I200
I3
tp7
sI5
(I200
I200
I3
tp8
sI6
(I200
I200
I3
tp9
sI7
(I200
I200
I3
tp10
sI8
(I200
I200
I3
tp11
sI9
(I200
I200
I3
tp12
ssI1
(dp13
I0
(I200
I3
tp14
sI1
(I200
I3
tp15
sI2
(I200
I3
tp16
sI3
(I200
I3
tp17
sI4
(I200
I3
tp18
sI5
(I200
I3
tp19
sI6
(I200
I3
tp20
sI7
(I200
I3
tp21
sI8
(I200
I3
tp22
sI9
(I200
I3
tp23
ssI2
(dp24
I0
(I1
I3
tp25
sI1
(I1
I3
tp26
sI2
(I1
I3
tp27
sI3
(I1
I3
tp28
sI4
(I1
I3
tp29
sI5
(I1
I3
tp30
sI6
(I1
I3
tp31
sI7
(I1
I3
tp32
sI8
(I1
I3
tp33
sI9
(I1
I3
tp34
ssI3
(dp35
I0
(I3
I1
tp36
sI1
(I3
I1
tp37
sI2
(I3
I1
tp38
sI3
(I3
I1
tp39
sI4
(I3
I1
tp40
sI5
(I3
I1
tp41
sI6
(I3
I1
tp42
sI7
(I3
I1
tp43
sI8
(I3
I1
tp44
sI9
(I3
I1
tp45
ssI4
(I100
I3372
tp46
s.